target datalayout = "e-m:e-p270:32:32-p271:32:32-p272:64:64-i64:64-i128:128-f80:128-n8:16:32:64-S128"
target triple = "x86_64-pc-linux-gnu"

%struct.H5VL_loc_params_t = type { i32, i32, %union.anon }
%union.anon = type { %struct.H5VL_loc_by_idx }
%struct.H5VL_loc_by_idx = type { ptr, i32, i32, i64, i64 }
%struct.H5VL_object_specific_args_t = type { i32, %union.anon.3 }
%union.anon.3 = type { %struct.H5VL_object_visit_args_t }
%struct.H5VL_object_visit_args_t = type { i32, i32, i32, ptr, ptr }
%struct.anon.7 = type { i64 }

@.str = private unnamed_addr constant [97 x i8] c"generated/home/dtcxzyw/WorkSpace/Projects/compilers/llvm-opt-benchmark/bench/hdf5/hdf5/src/H5O.c\00", align 1
@H5E_CANTSET_g = external global i64, align 8
@H5E_OHDR_g = external global i64, align 8
@H5P_LST_DATASET_XFER_ID_g = external global i64, align 8
@H5E_CANTFLUSH_g = external global i64, align 8
@.str.94 = private unnamed_addr constant [34 x i8] c"can't set object access arguments\00", align 1
@__func__.H5O__flush_api_common = private unnamed_addr constant [22 x i8] c"H5O__flush_api_common\00", align 1
@.str.101 = private unnamed_addr constant [23 x i8] c"unable to flush object\00", align 1

; Function Attrs: nounwind uwtable
define internal i32 @H5O__flush_api_common(i64 noundef %0, ptr noundef %1, ptr noundef %2) #0 {
  %4 = alloca i64, align 8
  %5 = alloca ptr, align 8
  %6 = alloca ptr, align 8
  %7 = alloca ptr, align 8
  %8 = alloca ptr, align 8
  %9 = alloca %struct.H5VL_object_specific_args_t, align 8
  %10 = alloca %struct.H5VL_loc_params_t, align 8
  %11 = alloca i32, align 4
  %12 = alloca i8, align 1
  store i64 %0, ptr %4, align 8
  store ptr %1, ptr %5, align 8
  store ptr %2, ptr %6, align 8
  store ptr null, ptr %7, align 8
  %13 = load ptr, ptr %6, align 8
  %14 = icmp ne ptr %13, null
  br i1 %14, label %15, label %17

15:                                               ; preds = %3
  %16 = load ptr, ptr %6, align 8
  br label %18

17:                                               ; preds = %3
  br label %18

18:                                               ; preds = %17, %15
  %19 = phi ptr [ %16, %15 ], [ %7, %17 ]
  store ptr %19, ptr %8, align 8
  store i32 0, ptr %11, align 4
  store i8 0, ptr %12, align 1
  %20 = load i64, ptr %4, align 8
  %21 = load ptr, ptr %8, align 8
  %22 = call i32 @H5VL_setup_loc_args(i64 noundef %20, ptr noundef %21, ptr noundef %10)
  %23 = icmp slt i32 %22, 0
  br i1 %23, label %24, label %39

24:                                               ; preds = %18
  br label %25

25:                                               ; preds = %24
  br label %26

26:                                               ; preds = %25
  br label %27

27:                                               ; preds = %26
  %28 = load i64, ptr @H5E_OHDR_g, align 8
  %29 = load i64, ptr @H5E_CANTSET_g, align 8
  %30 = call i32 (ptr, ptr, i32, i64, i64, ptr, ...) @H5E_printf_stack(ptr noundef @.str, ptr noundef @__func__.H5O__flush_api_common, i32 noundef 608, i64 noundef %28, i64 noundef %29, ptr noundef @.str.94)
  br label %31

31:                                               ; preds = %27
  store i8 1, ptr %12, align 1
  %32 = load i8, ptr %12, align 1
  %33 = trunc i8 %32 to i1
  %34 = zext i1 %33 to i8
  store i8 %34, ptr %12, align 1
  br label %35

35:                                               ; preds = %31
  br label %36

36:                                               ; preds = %35
  store i32 -1, ptr %11, align 4
  br label %66

37:                                               ; No predecessors!
  br label %38

38:                                               ; preds = %37
  br label %39

39:                                               ; preds = %38, %18
  %40 = getelementptr inbounds %struct.H5VL_object_specific_args_t, ptr %9, i32 0, i32 0
  store i32 4, ptr %40, align 8
  %41 = load i64, ptr %4, align 8
  %42 = getelementptr inbounds %struct.H5VL_object_specific_args_t, ptr %9, i32 0, i32 1
  %43 = getelementptr inbounds %struct.anon.7, ptr %42, i32 0, i32 0
  store i64 %41, ptr %43, align 8
  %44 = load ptr, ptr %8, align 8
  %45 = load ptr, ptr %44, align 8
  %46 = load i64, ptr @H5P_LST_DATASET_XFER_ID_g, align 8
  %47 = load ptr, ptr %5, align 8
  %48 = call i32 @H5VL_object_specific(ptr noundef %45, ptr noundef %10, ptr noundef %9, i64 noundef %46, ptr noundef %47)
  %49 = icmp slt i32 %48, 0
  br i1 %49, label %50, label %65

50:                                               ; preds = %39
  br label %51

51:                                               ; preds = %50
  br label %52

52:                                               ; preds = %51
  br label %53

53:                                               ; preds = %52
  %54 = load i64, ptr @H5E_OHDR_g, align 8
  %55 = load i64, ptr @H5E_CANTFLUSH_g, align 8
  %56 = call i32 (ptr, ptr, i32, i64, i64, ptr, ...) @H5E_printf_stack(ptr noundef @.str, ptr noundef @__func__.H5O__flush_api_common, i32 noundef 617, i64 noundef %54, i64 noundef %55, ptr noundef @.str.101)
  br label %57

57:                                               ; preds = %53
  store i8 1, ptr %12, align 1
  %58 = load i8, ptr %12, align 1
  %59 = trunc i8 %58 to i1
  %60 = zext i1 %59 to i8
  store i8 %60, ptr %12, align 1
  br label %61

61:                                               ; preds = %57
  br label %62

62:                                               ; preds = %61
  store i32 -1, ptr %11, align 4
  br label %66

63:                                               ; No predecessors!
  br label %64

64:                                               ; preds = %63
  br label %65

65:                                               ; preds = %64, %39
  br label %66

66:                                               ; preds = %65, %62, %36
  %67 = load i32, ptr %11, align 4
  ret i32 %67
}