; Function Attrs: nounwind uwtable
define internal fastcc range(i32 -1, 1) i32 @H5O__flush_api_common(i64 noundef %0, ptr noundef %1, ptr noundef %2) unnamed_addr #0 {
  %4 = alloca ptr, align 8
  %5 = alloca %struct.H5VL_object_specific_args_t, align 8
  %6 = alloca %struct.H5VL_loc_params_t, align 8
  store ptr null, ptr %4, align 8
  %.not = icmp eq ptr %2, null
  %7 = select i1 %.not, ptr %4, ptr %2
  %8 = call i32 @H5VL_setup_loc_args(i64 noundef %0, ptr noundef nonnull %7, ptr noundef nonnull %6) #4
  %9 = icmp slt i32 %8, 0
  br i1 %9, label %10, label %14

10:                                               ; preds = %3
  %11 = load i64, ptr @H5E_OHDR_g, align 8
  %12 = load i64, ptr @H5E_CANTSET_g, align 8
  %13 = call i32 (ptr, ptr, i32, i64, i64, ptr, ...) @H5E_printf_stack(ptr noundef nonnull @.str, ptr noundef nonnull @__func__.H5O__flush_api_common, i32 noundef 608, i64 noundef %11, i64 noundef %12, ptr noundef nonnull @.str.94) #4
  br label %24

14:                                               ; preds = %3
  store i32 4, ptr %5, align 8
  %15 = getelementptr inbounds i8, ptr %5, i64 8
  store i64 %0, ptr %15, align 8
  %16 = load ptr, ptr %7, align 8
  %17 = load i64, ptr @H5P_LST_DATASET_XFER_ID_g, align 8
  %18 = call i32 @H5VL_object_specific(ptr noundef %16, ptr noundef nonnull %6, ptr noundef nonnull %5, i64 noundef %17, ptr noundef %1) #4
  %19 = icmp slt i32 %18, 0
  br i1 %19, label %20, label %24

20:                                               ; preds = %14
  %21 = load i64, ptr @H5E_OHDR_g, align 8
  %22 = load i64, ptr @H5E_CANTFLUSH_g, align 8
  %23 = call i32 (ptr, ptr, i32, i64, i64, ptr, ...) @H5E_printf_stack(ptr noundef nonnull @.str, ptr noundef nonnull @__func__.H5O__flush_api_common, i32 noundef 617, i64 noundef %21, i64 noundef %22, ptr noundef nonnull @.str.101) #4
  br label %24

24:                                               ; preds = %14, %20, %10
  %.0 = phi i32 [ -1, %10 ], [ -1, %20 ], [ 0, %14 ]
  ret i32 %.0
}